target datalayout = "e-m:e-p270:32:32-p271:32:32-p272:64:64-i64:64-i128:128-f80:128-n8:16:32:64-S128"
target triple = "x86_64-pc-linux-gnu"

%struct.Node = type { i32 }
%struct.FormData_pg_am = type { i32, %struct.nameData, i32, i8 }
%struct.nameData = type { [64 x i8] }
%struct.HeapTupleData = type { i32, %struct.ItemPointerData, i32, ptr }
%struct.ItemPointerData = type { %struct.BlockIdData, i16 }
%struct.BlockIdData = type { i16, i16 }
%struct.HeapTupleHeaderData = type { %union.anon, %struct.ItemPointerData, i16, i16, i8, [0 x i8] }
%union.anon = type { %struct.HeapTupleFields }
%struct.HeapTupleFields = type { i32, i32, %union.anon.0 }
%union.anon.0 = type { i32 }

@.str = private unnamed_addr constant [80 x i8] c"index access method handler function %u did not return an IndexAmRoutine struct\00", align 1
@.str.1 = private unnamed_addr constant [8 x i8] c"amapi.c\00", align 1
@__func__.GetIndexAmRoutine = private unnamed_addr constant [18 x i8] c"GetIndexAmRoutine\00", align 1
@.str.2 = private unnamed_addr constant [41 x i8] c"cache lookup failed for access method %u\00", align 1
@__func__.GetIndexAmRoutineByAmId = private unnamed_addr constant [24 x i8] c"GetIndexAmRoutineByAmId\00", align 1
@.str.3 = private unnamed_addr constant [37 x i8] c"access method \22%s\22 is not of type %s\00", align 1
@.str.4 = private unnamed_addr constant [6 x i8] c"INDEX\00", align 1
@.str.5 = private unnamed_addr constant [49 x i8] c"index access method \22%s\22 does not have a handler\00", align 1

; Function Attrs: inlinehint nounwind uwtable
define internal ptr @DatumGetPointer(i64 noundef %0) #3 {
  %2 = alloca i64, align 8
  store i64 %0, ptr %2, align 8
  %3 = load i64, ptr %2, align 8
  %4 = inttoptr i64 %3 to ptr
  ret ptr %4
}

; Function Attrs: nounwind uwtable
define dso_local ptr @GetIndexAmRoutine(i32 noundef %0) #0 {
  %2 = alloca i32, align 4
  %3 = alloca i64, align 8
  %4 = alloca ptr, align 8
  store i32 %0, ptr %2, align 4
  call void @llvm.lifetime.start.p0(i64 8, ptr %3) #5
  call void @llvm.lifetime.start.p0(i64 8, ptr %4) #5
  %5 = load i32, ptr %2, align 4
  %6 = call i64 @OidFunctionCall0Coll(i32 noundef %5, i32 noundef 0)
  store i64 %6, ptr %3, align 8
  %7 = load i64, ptr %3, align 8
  %8 = call ptr @DatumGetPointer(i64 noundef %7)
  store ptr %8, ptr %4, align 8
  %9 = load ptr, ptr %4, align 8
  %10 = icmp eq ptr %9, null
  br i1 %10, label %16, label %11

11:                                               ; preds = %1
  %12 = load ptr, ptr %4, align 8
  %13 = getelementptr inbounds nuw %struct.Node, ptr %12, i32 0, i32 0
  %14 = load i32, ptr %13, align 4
  %15 = icmp eq i32 %14, 437
  br i1 %15, label %28, label %16

16:                                               ; preds = %11, %1
  br label %17

17:                                               ; preds = %16
  br i1 true, label %18, label %20

18:                                               ; preds = %17
  %19 = call zeroext i1 @errstart_cold(i32 noundef 21, ptr noundef null) #6
  br i1 %19, label %22, label %25

20:                                               ; preds = %17
  %21 = call zeroext i1 @errstart(i32 noundef 21, ptr noundef null)
  br i1 %21, label %22, label %25

22:                                               ; preds = %20, %18
  %23 = load i32, ptr %2, align 4
  %24 = call i32 (ptr, ...) @errmsg_internal(ptr noundef @.str, i32 noundef %23)
  call void @errfinish(ptr noundef @.str.1, i32 noundef 43, ptr noundef @__func__.GetIndexAmRoutine)
  br label %25

25:                                               ; preds = %22, %20, %18
  unreachable

26:                                               ; No predecessors!
  br label %27

27:                                               ; preds = %26
  br label %28

28:                                               ; preds = %27, %11
  %29 = load ptr, ptr %4, align 8
  call void @llvm.lifetime.end.p0(i64 8, ptr %4) #5
  call void @llvm.lifetime.end.p0(i64 8, ptr %3) #5
  ret ptr %29
}

; Function Attrs: inlinehint nounwind uwtable
define internal ptr @GETSTRUCT(ptr noundef %0) #3 {
  %2 = alloca ptr, align 8
  store ptr %0, ptr %2, align 8
  %3 = load ptr, ptr %2, align 8
  %4 = getelementptr inbounds nuw %struct.HeapTupleData, ptr %3, i32 0, i32 3
  %5 = load ptr, ptr %4, align 8
  %6 = load ptr, ptr %2, align 8
  %7 = getelementptr inbounds nuw %struct.HeapTupleData, ptr %6, i32 0, i32 3
  %8 = load ptr, ptr %7, align 8
  %9 = getelementptr inbounds nuw %struct.HeapTupleHeaderData, ptr %8, i32 0, i32 4
  %10 = load i8, ptr %9, align 2
  %11 = zext i8 %10 to i32
  %12 = sext i32 %11 to i64
  %13 = getelementptr inbounds i8, ptr %5, i64 %12
  ret ptr %13
}

; Function Attrs: inlinehint nounwind uwtable
define internal i64 @ObjectIdGetDatum(i32 noundef %0) #3 {
  %2 = alloca i32, align 4
  store i32 %0, ptr %2, align 4
  %3 = load i32, ptr %2, align 4
  %4 = zext i32 %3 to i64
  ret i64 %4
}

; Function Attrs: nounwind uwtable
define dso_local ptr @GetIndexAmRoutineByAmId(i32 noundef %0, i1 noundef zeroext %1) #0 {
  %3 = alloca ptr, align 8
  %4 = alloca i32, align 4
  %5 = alloca i8, align 1
  %6 = alloca ptr, align 8
  %7 = alloca ptr, align 8
  %8 = alloca i32, align 4
  %9 = alloca i32, align 4
  store i32 %0, ptr %4, align 4
  %10 = zext i1 %1 to i8
  store i8 %10, ptr %5, align 1
  call void @llvm.lifetime.start.p0(i64 8, ptr %6) #5
  call void @llvm.lifetime.start.p0(i64 8, ptr %7) #5
  call void @llvm.lifetime.start.p0(i64 4, ptr %8) #5
  %11 = load i32, ptr %4, align 4
  %12 = call i64 @ObjectIdGetDatum(i32 noundef %11)
  %13 = call ptr @SearchSysCache1(i32 noundef 2, i64 noundef %12)
  store ptr %13, ptr %6, align 8
  %14 = load ptr, ptr %6, align 8
  %15 = icmp ne ptr %14, null
  br i1 %15, label %32, label %16

16:                                               ; preds = %2
  %17 = load i8, ptr %5, align 1, !range !4, !noundef !5
  %18 = trunc i8 %17 to i1
  br i1 %18, label %19, label %20

19:                                               ; preds = %16
  store ptr null, ptr %3, align 8
  store i32 1, ptr %9, align 4
  br label %92

20:                                               ; preds = %16
  br label %21

21:                                               ; preds = %20
  br i1 true, label %22, label %24

22:                                               ; preds = %21
  %23 = call zeroext i1 @errstart_cold(i32 noundef 21, ptr noundef null) #6
  br i1 %23, label %26, label %29

24:                                               ; preds = %21
  %25 = call zeroext i1 @errstart(i32 noundef 21, ptr noundef null)
  br i1 %25, label %26, label %29

26:                                               ; preds = %24, %22
  %27 = load i32, ptr %4, align 4
  %28 = call i32 (ptr, ...) @errmsg_internal(ptr noundef @.str.2, i32 noundef %27)
  call void @errfinish(ptr noundef @.str.1, i32 noundef 69, ptr noundef @__func__.GetIndexAmRoutineByAmId)
  br label %29

29:                                               ; preds = %26, %24, %22
  unreachable

30:                                               ; No predecessors!
  br label %31

31:                                               ; preds = %30
  br label %32

32:                                               ; preds = %31, %2
  %33 = load ptr, ptr %6, align 8
  %34 = call ptr @GETSTRUCT(ptr noundef %33)
  store ptr %34, ptr %7, align 8
  %35 = load ptr, ptr %7, align 8
  %36 = getelementptr inbounds nuw %struct.FormData_pg_am, ptr %35, i32 0, i32 3
  %37 = load i8, ptr %36, align 4
  %38 = sext i8 %37 to i32
  %39 = icmp ne i32 %38, 105
  br i1 %39, label %40, label %61

40:                                               ; preds = %32
  %41 = load i8, ptr %5, align 1, !range !4, !noundef !5
  %42 = trunc i8 %41 to i1
  br i1 %42, label %43, label %45

43:                                               ; preds = %40
  %44 = load ptr, ptr %6, align 8
  call void @ReleaseSysCache(ptr noundef %44)
  store ptr null, ptr %3, align 8
  store i32 1, ptr %9, align 4
  br label %92

45:                                               ; preds = %40
  br label %46

46:                                               ; preds = %45
  br i1 true, label %47, label %49

47:                                               ; preds = %46
  %48 = call zeroext i1 @errstart_cold(i32 noundef 21, ptr noundef null) #6
  br i1 %48, label %51, label %58

49:                                               ; preds = %46
  %50 = call zeroext i1 @errstart(i32 noundef 21, ptr noundef null)
  br i1 %50, label %51, label %58

51:                                               ; preds = %49, %47
  %52 = call i32 @errcode(i32 noundef 325)
  %53 = load ptr, ptr %7, align 8
  %54 = getelementptr inbounds nuw %struct.FormData_pg_am, ptr %53, i32 0, i32 1
  %55 = getelementptr inbounds nuw %struct.nameData, ptr %54, i32 0, i32 0
  %56 = getelementptr inbounds [64 x i8], ptr %55, i64 0, i64 0
  %57 = call i32 (ptr, ...) @errmsg(ptr noundef @.str.3, ptr noundef %56, ptr noundef @.str.4)
  call void @errfinish(ptr noundef @.str.1, i32 noundef 84, ptr noundef @__func__.GetIndexAmRoutineByAmId)
  br label %58

58:                                               ; preds = %51, %49, %47
  unreachable

59:                                               ; No predecessors!
  br label %60

60:                                               ; preds = %59
  br label %61

61:                                               ; preds = %60, %32
  %62 = load ptr, ptr %7, align 8
  %63 = getelementptr inbounds nuw %struct.FormData_pg_am, ptr %62, i32 0, i32 2
  %64 = load i32, ptr %63, align 4
  store i32 %64, ptr %8, align 4
  %65 = load i32, ptr %8, align 4
  %66 = icmp ne i32 %65, 0
  br i1 %66, label %88, label %67

67:                                               ; preds = %61
  %68 = load i8, ptr %5, align 1, !range !4, !noundef !5
  %69 = trunc i8 %68 to i1
  br i1 %69, label %70, label %72

70:                                               ; preds = %67
  %71 = load ptr, ptr %6, align 8
  call void @ReleaseSysCache(ptr noundef %71)
  store ptr null, ptr %3, align 8
  store i32 1, ptr %9, align 4
  br label %92

72:                                               ; preds = %67
  br label %73

73:                                               ; preds = %72
  br i1 true, label %74, label %76

74:                                               ; preds = %73
  %75 = call zeroext i1 @errstart_cold(i32 noundef 21, ptr noundef null) #6
  br i1 %75, label %78, label %85

76:                                               ; preds = %73
  %77 = call zeroext i1 @errstart(i32 noundef 21, ptr noundef null)
  br i1 %77, label %78, label %85

78:                                               ; preds = %76, %74
  %79 = call i32 @errcode(i32 noundef 325)
  %80 = load ptr, ptr %7, align 8
  %81 = getelementptr inbounds nuw %struct.FormData_pg_am, ptr %80, i32 0, i32 1
  %82 = getelementptr inbounds nuw %struct.nameData, ptr %81, i32 0, i32 0
  %83 = getelementptr inbounds [64 x i8], ptr %82, i64 0, i64 0
  %84 = call i32 (ptr, ...) @errmsg(ptr noundef @.str.5, ptr noundef %83)
  call void @errfinish(ptr noundef @.str.1, i32 noundef 100, ptr noundef @__func__.GetIndexAmRoutineByAmId)
  br label %85

85:                                               ; preds = %78, %76, %74
  unreachable

86:                                               ; No predecessors!
  br label %87

87:                                               ; preds = %86
  br label %88

88:                                               ; preds = %87, %61
  %89 = load ptr, ptr %6, align 8
  call void @ReleaseSysCache(ptr noundef %89)
  %90 = load i32, ptr %8, align 4
  %91 = call ptr @GetIndexAmRoutine(i32 noundef %90)
  store ptr %91, ptr %3, align 8
  store i32 1, ptr %9, align 4
  br label %92

92:                                               ; preds = %88, %70, %43, %19
  call void @llvm.lifetime.end.p0(i64 4, ptr %8) #5
  call void @llvm.lifetime.end.p0(i64 8, ptr %7) #5
  call void @llvm.lifetime.end.p0(i64 8, ptr %6) #5
  %93 = load ptr, ptr %3, align 8
  ret ptr %93
}