; Function Attrs: nounwind uwtable
define dso_local noundef ptr @GetIndexAmRoutineByAmId(i32 noundef %0, i1 noundef zeroext %1) local_unnamed_addr #0 {
  %3 = zext i32 %0 to i64
  %4 = tail call ptr @SearchSysCache1(i32 noundef 2, i64 noundef %3) #4
  %.not = icmp eq ptr %4, null
  br i1 %.not, label %5, label %9

5:                                                ; preds = %2
  br i1 %1, label %GetIndexAmRoutine.exit, label %6

6:                                                ; preds = %5
  %7 = tail call zeroext i1 @errstart_cold(i32 noundef 21, ptr noundef null) #5
  tail call void @llvm.assume(i1 %7)
  %8 = tail call i32 (ptr, ...) @errmsg_internal(ptr noundef nonnull @.str.2, i32 noundef %0) #4
  tail call void @errfinish(ptr noundef nonnull @.str.1, i32 noundef 69, ptr noundef nonnull @__func__.GetIndexAmRoutineByAmId) #4
  unreachable

9:                                                ; preds = %2
  %10 = getelementptr i8, ptr %4, i64 16
  %.val = load ptr, ptr %10, align 8
  %11 = getelementptr inbounds nuw i8, ptr %.val, i64 22
  %12 = load i8, ptr %11, align 2
  %13 = zext i8 %12 to i64
  %14 = getelementptr inbounds nuw i8, ptr %.val, i64 %13
  %15 = getelementptr inbounds nuw i8, ptr %14, i64 72
  %16 = load i8, ptr %15, align 4
  %.not18 = icmp eq i8 %16, 105
  br i1 %.not18, label %23, label %17

17:                                               ; preds = %9
  br i1 %1, label %GetIndexAmRoutine.exit.sink.split, label %18

18:                                               ; preds = %17
  %19 = tail call zeroext i1 @errstart_cold(i32 noundef 21, ptr noundef null) #5
  tail call void @llvm.assume(i1 %19)
  %20 = tail call i32 @errcode(i32 noundef 325) #4
  %21 = getelementptr inbounds nuw i8, ptr %14, i64 4
  %22 = tail call i32 (ptr, ...) @errmsg(ptr noundef nonnull @.str.3, ptr noundef nonnull %21, ptr noundef nonnull @.str.4) #4
  tail call void @errfinish(ptr noundef nonnull @.str.1, i32 noundef 84, ptr noundef nonnull @__func__.GetIndexAmRoutineByAmId) #4
  unreachable

23:                                               ; preds = %9
  %24 = getelementptr inbounds nuw i8, ptr %14, i64 68
  %25 = load i32, ptr %24, align 4
  %.not19 = icmp eq i32 %25, 0
  br i1 %.not19, label %26, label %32

26:                                               ; preds = %23
  br i1 %1, label %GetIndexAmRoutine.exit.sink.split, label %27

27:                                               ; preds = %26
  %28 = tail call zeroext i1 @errstart_cold(i32 noundef 21, ptr noundef null) #5
  tail call void @llvm.assume(i1 %28)
  %29 = tail call i32 @errcode(i32 noundef 325) #4
  %30 = getelementptr inbounds nuw i8, ptr %14, i64 4
  %31 = tail call i32 (ptr, ...) @errmsg(ptr noundef nonnull @.str.5, ptr noundef nonnull %30) #4
  tail call void @errfinish(ptr noundef nonnull @.str.1, i32 noundef 100, ptr noundef nonnull @__func__.GetIndexAmRoutineByAmId) #4
  unreachable

32:                                               ; preds = %23
  tail call void @ReleaseSysCache(ptr noundef nonnull %4) #4
  %33 = tail call i64 @OidFunctionCall0Coll(i32 noundef %25, i32 noundef 0) #4
  %34 = icmp eq i64 %33, 0
  br i1 %34, label %39, label %35

35:                                               ; preds = %32
  %36 = inttoptr i64 %33 to ptr
  %37 = load i32, ptr %36, align 4
  %38 = icmp eq i32 %37, 437
  br i1 %38, label %GetIndexAmRoutine.exit, label %39

39:                                               ; preds = %35, %32
  %40 = tail call zeroext i1 @errstart_cold(i32 noundef 21, ptr noundef null) #5
  tail call void @llvm.assume(i1 %40)
  %41 = tail call i32 (ptr, ...) @errmsg_internal(ptr noundef nonnull @.str, i32 noundef %25) #4
  tail call void @errfinish(ptr noundef nonnull @.str.1, i32 noundef 43, ptr noundef nonnull @__func__.GetIndexAmRoutine) #4
  unreachable

GetIndexAmRoutine.exit.sink.split:                ; preds = %26, %17
  tail call void @ReleaseSysCache(ptr noundef nonnull %4) #4
  br label %GetIndexAmRoutine.exit

GetIndexAmRoutine.exit:                           ; preds = %GetIndexAmRoutine.exit.sink.split, %35, %5
  %.0 = phi ptr [ null, %5 ], [ %36, %35 ], [ null, %GetIndexAmRoutine.exit.sink.split ]
  ret ptr %.0
}